; Function Attrs: mustprogress nounwind uwtable
define hidden void @_ZN2cv11RBaseStreamD0Ev(ptr noundef nonnull align 8 dereferenceable(57) initializes((0, 8), (56, 57)) %0) unnamed_addr #4 align 2 personality ptr @__gxx_personality_v0 {
  store ptr getelementptr inbounds nuw inrange(-16, 64) (i8, ptr @_ZTVN2cv11RBaseStreamE, i64 16), ptr %0, align 8, !tbaa !19
  %2 = getelementptr inbounds nuw i8, ptr %0, i64 40
  %3 = load ptr, ptr %2, align 8, !tbaa !22
  %.not.i.i = icmp eq ptr %3, null
  br i1 %.not.i.i, label %6, label %4

4:                                                ; preds = %1
  %5 = tail call i32 @fclose(ptr noundef nonnull %3)
  store ptr null, ptr %2, align 8, !tbaa !22
  br label %6

6:                                                ; preds = %4, %1
  %7 = getelementptr inbounds nuw i8, ptr %0, i64 56
  store i8 0, ptr %7, align 8, !tbaa !3
  %8 = getelementptr inbounds nuw i8, ptr %0, i64 8
  %9 = load i8, ptr %8, align 8, !tbaa !14, !range !12, !noundef !13
  %10 = trunc nuw i8 %9 to i1
  br i1 %10, label %_ZN2cv11RBaseStream5closeEv.exit.i, label %11

11:                                               ; preds = %6
  %12 = getelementptr inbounds nuw i8, ptr %0, i64 16
  tail call void @llvm.memset.p0.i64(ptr noundef nonnull align 8 dereferenceable(24) %12, i8 0, i64 24, i1 false)
  br label %_ZN2cv11RBaseStream5closeEv.exit.i

_ZN2cv11RBaseStream5closeEv.exit.i:               ; preds = %11, %6
  %13 = load ptr, ptr %0, align 8, !tbaa !19
  %14 = getelementptr inbounds nuw i8, ptr %13, i64 48
  %15 = load ptr, ptr %14, align 8
  invoke void %15(ptr noundef nonnull align 8 dereferenceable(57) %0)
          to label %_ZN2cv11RBaseStreamD2Ev.exit unwind label %16

16:                                               ; preds = %_ZN2cv11RBaseStream5closeEv.exit.i
  %17 = landingpad { ptr, i32 }
          catch ptr null
  %18 = extractvalue { ptr, i32 } %17, 0
  tail call void @__clang_call_terminate(ptr %18) #21
  unreachable

_ZN2cv11RBaseStreamD2Ev.exit:                     ; preds = %_ZN2cv11RBaseStream5closeEv.exit.i
  tail call void @_ZdlPv(ptr noundef nonnull %0) #23
  ret void
}